	.file	"DRAMHandler.c"
__SP_H__ = 0x3e
__SP_L__ = 0x3d
__SREG__ = 0x3f
__CCP__ = 0x34
__tmp_reg__ = 0
__zero_reg__ = 1
 ;  GNU C99 (AVR_8_bit_GNU_Toolchain_3.6.2_1778) version 5.4.0 (avr)
 ; 	compiled by GNU C version 4.7.4, GMP version 5.0.2, MPFR version 3.0.0, MPC version 0.9
 ;  GGC heuristics: --param ggc-min-expand=100 --param ggc-min-heapsize=131072
 ;  options passed:  -fpreprocessed DRAMHandler.i -mn-flash=1 -mno-skip-bug
 ;  -mmcu=avrxmega3 -mshort-calls -auxbase-strip DRAMHandler/DRAMHandler.o
 ;  -g2 -Os -Wall -std=gnu99 -funsigned-char -funsigned-bitfields
 ;  -ffunction-sections -fdata-sections -fpack-struct -fshort-enums
 ;  -fverbose-asm
 ;  options enabled:  -Wmisspelled-isr -faggressive-loop-optimizations
 ;  -falign-functions -falign-jumps -falign-labels -falign-loops
 ;  -fauto-inc-dec -fbranch-count-reg -fchkp-check-incomplete-type
 ;  -fchkp-check-read -fchkp-check-write -fchkp-instrument-calls
 ;  -fchkp-narrow-bounds -fchkp-optimize -fchkp-store-bounds
 ;  -fchkp-use-static-bounds -fchkp-use-static-const-bounds
 ;  -fchkp-use-wrappers -fcombine-stack-adjustments -fcommon -fcompare-elim
 ;  -fcprop-registers -fcrossjumping -fcse-follow-jumps -fdata-sections
 ;  -fdefer-pop -fdevirtualize -fdevirtualize-speculatively
 ;  -fdwarf2-cfi-asm -fearly-inlining -feliminate-unused-debug-types
 ;  -fexpensive-optimizations -fforward-propagate -ffunction-cse
 ;  -ffunction-sections -fgcse -fgcse-lm -fgnu-runtime -fgnu-unique
 ;  -fguess-branch-probability -fhoist-adjacent-loads -fident
 ;  -fif-conversion -fif-conversion2 -findirect-inlining -finline
 ;  -finline-atomics -finline-functions -finline-functions-called-once
 ;  -finline-small-functions -fipa-cp -fipa-cp-alignment -fipa-icf
 ;  -fipa-icf-functions -fipa-icf-variables -fipa-profile -fipa-pure-const
 ;  -fipa-ra -fipa-reference -fipa-sra -fira-hoist-pressure
 ;  -fira-share-save-slots -fira-share-spill-slots
 ;  -fisolate-erroneous-paths-dereference -fivopts -fkeep-static-consts
 ;  -fleading-underscore -flifetime-dse -flra-remat -flto-odr-type-merging
 ;  -fmath-errno -fmerge-constants -fmerge-debug-strings
 ;  -fmove-loop-invariants -fomit-frame-pointer -foptimize-sibling-calls
 ;  -fpack-struct -fpartial-inlining -fpeephole -fpeephole2
 ;  -fprefetch-loop-arrays -freg-struct-return -freorder-blocks
 ;  -freorder-functions -frerun-cse-after-loop
 ;  -fsched-critical-path-heuristic -fsched-dep-count-heuristic
 ;  -fsched-group-heuristic -fsched-interblock -fsched-last-insn-heuristic
 ;  -fsched-rank-heuristic -fsched-spec -fsched-spec-insn-heuristic
 ;  -fsched-stalled-insns-dep -fschedule-fusion -fsemantic-interposition
 ;  -fshow-column -fshrink-wrap -fsigned-zeros -fsplit-ivs-in-unroller
 ;  -fsplit-wide-types -fssa-phiopt -fstdarg-opt -fstrict-aliasing
 ;  -fstrict-overflow -fstrict-volatile-bitfields -fsync-libcalls
 ;  -fthread-jumps -ftoplevel-reorder -ftrapping-math -ftree-bit-ccp
 ;  -ftree-builtin-call-dce -ftree-ccp -ftree-ch -ftree-coalesce-vars
 ;  -ftree-copy-prop -ftree-copyrename -ftree-dce -ftree-dominator-opts
 ;  -ftree-dse -ftree-forwprop -ftree-fre -ftree-loop-if-convert
 ;  -ftree-loop-im -ftree-loop-ivcanon -ftree-loop-optimize
 ;  -ftree-parallelize-loops= -ftree-phiprop -ftree-pre -ftree-pta
 ;  -ftree-reassoc -ftree-scev-cprop -ftree-sink -ftree-slsr -ftree-sra
 ;  -ftree-switch-conversion -ftree-tail-merge -ftree-ter -ftree-vrp
 ;  -funit-at-a-time -fvar-tracking -fvar-tracking-assignments
 ;  -fverbose-asm -fzero-initialized-in-bss -mshort-calls

	.text
.Ltext0:
	.cfi_sections	.debug_frame
	.section	.text.processAndRespondBuffer,"ax",@progbits
.global	processAndRespondBuffer
	.type	processAndRespondBuffer, @function
processAndRespondBuffer:
.LFB11:
	.file 1 "../DRAMHandler/DRAMHandler.c"
	.loc 1 128 0
	.cfi_startproc
.LVL0:
	push r4	 ; 
.LCFI0:
	.cfi_def_cfa_offset 3
	.cfi_offset 4, -2
	push r5	 ; 
.LCFI1:
	.cfi_def_cfa_offset 4
	.cfi_offset 5, -3
	push r6	 ; 
.LCFI2:
	.cfi_def_cfa_offset 5
	.cfi_offset 6, -4
	push r7	 ; 
.LCFI3:
	.cfi_def_cfa_offset 6
	.cfi_offset 7, -5
	push r10	 ; 
.LCFI4:
	.cfi_def_cfa_offset 7
	.cfi_offset 10, -6
	push r11	 ; 
.LCFI5:
	.cfi_def_cfa_offset 8
	.cfi_offset 11, -7
	push r12	 ; 
.LCFI6:
	.cfi_def_cfa_offset 9
	.cfi_offset 12, -8
	push r13	 ; 
.LCFI7:
	.cfi_def_cfa_offset 10
	.cfi_offset 13, -9
	push r14	 ; 
.LCFI8:
	.cfi_def_cfa_offset 11
	.cfi_offset 14, -10
	push r15	 ; 
.LCFI9:
	.cfi_def_cfa_offset 12
	.cfi_offset 15, -11
	push r16	 ; 
.LCFI10:
	.cfi_def_cfa_offset 13
	.cfi_offset 16, -12
	push r17	 ; 
.LCFI11:
	.cfi_def_cfa_offset 14
	.cfi_offset 17, -13
	push r28	 ; 
.LCFI12:
	.cfi_def_cfa_offset 15
	.cfi_offset 28, -14
	push r29	 ; 
.LCFI13:
	.cfi_def_cfa_offset 16
	.cfi_offset 29, -15
/* prologue: function */
/* frame size = 0 */
/* stack size = 14 */
.L__stack_usage = 14
	movw r28,r24	 ;  self, self
	.loc 1 129 0
	ldd r30,Y+24	 ;  self_5(D)->msgBuffer.PTR.cmd, self_5(D)->msgBuffer.PTR.cmd
	ldd r31,Y+25	 ;  self_5(D)->msgBuffer.PTR.cmd, self_5(D)->msgBuffer.PTR.cmd
	ld r11,Z	 ;  cmd, *_6
.LVL1:
	.loc 1 130 0
	ldi r24,lo8(-17)	 ;  D.3437,
.LVL2:
	add r24,r11	 ;  D.3437, cmd
	movw r16,r28	 ;  D.3440, self
	subi r16,-24	 ;  D.3440,
	sbci r17,-1	 ;  D.3440,
	cpi r24,lo8(3)	 ;  D.3437,
	brlo .+2	 ; 
	rjmp .L2	 ; 
.LBB11:
	.loc 1 131 0
	ldd r30,Y+26	 ;  self_5(D)->msgBuffer.PTR.addr1, self_5(D)->msgBuffer.PTR.addr1
	ldd r31,Y+27	 ;  self_5(D)->msgBuffer.PTR.addr1, self_5(D)->msgBuffer.PTR.addr1
	ld r24,Z	 ;  *_9, *_9
	ldd r30,Y+28	 ;  self_5(D)->msgBuffer.PTR.addr2, self_5(D)->msgBuffer.PTR.addr2
	ldd r31,Y+29	 ;  self_5(D)->msgBuffer.PTR.addr2, self_5(D)->msgBuffer.PTR.addr2
	ld r12,Z	 ;  *_13, *_13
	mov r13,__zero_reg__	 ;  D.3438
	mov r14,__zero_reg__	 ;  D.3438
	mov r15,__zero_reg__	 ;  D.3438
	mov r15,r14	 ;  D.3438, D.3438
	mov r14,r13	 ;  D.3438, D.3438
	mov r13,r12	 ;  D.3438, D.3438
	clr r12	 ;  D.3438
	or r14,r24	 ;  D.3438, *_9
	ldd r30,Y+30	 ;  self_5(D)->msgBuffer.PTR.addr3, self_5(D)->msgBuffer.PTR.addr3
	ldd r31,Y+31	 ;  self_5(D)->msgBuffer.PTR.addr3, self_5(D)->msgBuffer.PTR.addr3
	ld r24,Z	 ;  *_18, *_18
	or r12,r24	 ;  i, *_18
.LVL3:
	.loc 1 132 0
	ldd r30,Y+48	 ;  self_5(D)->msgBuffer.getLength, self_5(D)->msgBuffer.getLength
	ldd r31,Y+49	 ;  self_5(D)->msgBuffer.getLength, self_5(D)->msgBuffer.getLength
	movw r24,r16	 ; , D.3440
	icall
.LVL4:
	.loc 1 133 0
	cpi r24,lo8(4)	 ;  bufferLen,
	brne .L3	 ; ,
	.loc 1 133 0 is_stmt 0 discriminator 1
	ldi r24,lo8(19)	 ; ,
.LVL5:
	cpse r11,r24	 ;  cmd,
	rjmp .L1	 ; 
	.loc 1 134 0 is_stmt 1
	movw r30,r28	 ;  tmp103, self
	subi r30,-66	 ;  tmp103,
	sbci r31,-1	 ; ,
	ld __tmp_reg__,Z+	 ;  self_5(D)->readByte
	ld r31,Z	 ;  self_5(D)->readByte, self_5(D)->readByte
	mov r30,__tmp_reg__	 ;  self_5(D)->readByte
	movw r22,r14	 ; , i
	movw r20,r12	 ; , i
	movw r24,r28	 ; , self
	icall
.LVL6:
	sts 2244,r24	 ;  MEM[(struct SPI_t *)2240B].DATA, D.3437
	rjmp .L2	 ; 
.LVL7:
.L3:
	.loc 1 136 0
	cpi r24,lo8(5)	 ;  bufferLen,
	brne .L6	 ; ,
	.loc 1 136 0 is_stmt 0 discriminator 1
	ldi r26,lo8(18)	 ; ,
	cpse r11,r26	 ;  cmd,
	rjmp .L1	 ; 
.LVL8:
.LBB12:
	.loc 1 137 0 is_stmt 1
	ldd r26,Y+32	 ;  self_5(D)->msgBuffer.PTR.param1, self_5(D)->msgBuffer.PTR.param1
	ldd r27,Y+33	 ;  self_5(D)->msgBuffer.PTR.param1, self_5(D)->msgBuffer.PTR.param1
	.loc 1 138 0
	movw r30,r28	 ;  tmp108, self
	subi r30,-68	 ;  tmp108,
	sbci r31,-1	 ; ,
	ld __tmp_reg__,Z+	 ;  self_5(D)->writeByte
	ld r31,Z	 ;  self_5(D)->writeByte, self_5(D)->writeByte
	mov r30,__tmp_reg__	 ;  self_5(D)->writeByte
	ld r18,X	 ; , *_32
	movw r22,r14	 ; , i
	movw r20,r12	 ; , i
	movw r24,r28	 ; , self
.LVL9:
	icall
.LVL10:
	rjmp .L2	 ; 
.LVL11:
.L6:
.LBE12:
	.loc 1 140 0
	cpi r24,lo8(7)	 ;  bufferLen,
	breq .+2	 ; 
	rjmp .L1	 ; 
	.loc 1 140 0 is_stmt 0 discriminator 1
	ldi r27,lo8(17)	 ; ,
	cpse r11,r27	 ;  cmd,
	rjmp .L1	 ; 
.LBB13:
	.loc 1 141 0 is_stmt 1
	ldd r30,Y+32	 ;  self_5(D)->msgBuffer.PTR.param1, self_5(D)->msgBuffer.PTR.param1
	ldd r31,Y+33	 ;  self_5(D)->msgBuffer.PTR.param1, self_5(D)->msgBuffer.PTR.param1
	ld r24,Z	 ;  *_38, *_38
.LVL12:
	ldd r30,Y+34	 ;  self_5(D)->msgBuffer.PTR.param2, self_5(D)->msgBuffer.PTR.param2
	ldd r31,Y+35	 ;  self_5(D)->msgBuffer.PTR.param2, self_5(D)->msgBuffer.PTR.param2
	ld r4,Z	 ;  *_42, *_42
	mov r5,__zero_reg__	 ;  D.3438
	mov r6,__zero_reg__	 ;  D.3438
	mov r7,__zero_reg__	 ;  D.3438
	mov r7,r6	 ;  D.3438, D.3438
	mov r6,r5	 ;  D.3438, D.3438
	mov r5,r4	 ;  D.3438, D.3438
	clr r4	 ;  D.3438
	or r6,r24	 ;  D.3438, *_38
	ldd r30,Y+36	 ;  self_5(D)->msgBuffer.PTR.param3, self_5(D)->msgBuffer.PTR.param3
	ldd r31,Y+37	 ;  self_5(D)->msgBuffer.PTR.param3, self_5(D)->msgBuffer.PTR.param3
	ld r24,Z	 ;  *_47, *_47
	or r4,r24	 ;  addrTo, *_47
.LVL13:
.LBB14:
.LBB15:
	.loc 1 143 0
	movw r16,r28	 ;  tmp130, self
	subi r16,-66	 ;  tmp130,
	sbci r17,-1	 ; ,
	.loc 1 144 0
	movw r10,r28	 ;  D.3445, self
	ldi r24,52	 ; ,
	add r10,r24	 ;  D.3445,
	adc r11,__zero_reg__	 ;  D.3445
.LVL14:
.L8:
.LBE15:
	.loc 1 142 0 discriminator 1
	cp r4,r12	 ;  addrTo, i
	cpc r5,r13	 ;  addrTo, i
	cpc r6,r14	 ;  addrTo, i
	cpc r7,r15	 ;  addrTo, i
	brlo .L1	 ; ,
.LBB16:
	.loc 1 143 0 discriminator 3
	movw r26,r16	 ; , tmp130
	ld r30,X+	 ;  self_5(D)->readByte
	ld r31,X	 ;  self_5(D)->readByte
	movw r22,r14	 ; , i
	movw r20,r12	 ; , i
	movw r24,r28	 ; , self
	icall
.LVL15:
	.loc 1 144 0 discriminator 3
	ldd r30,Y+58	 ;  self_5(D)->burstReadQueue.push, self_5(D)->burstReadQueue.push
	ldd r31,Y+59	 ;  self_5(D)->burstReadQueue.push, self_5(D)->burstReadQueue.push
	mov r22,r24	 ; , data
	movw r24,r10	 ; , D.3445
.LVL16:
	icall
.LVL17:
.LBE16:
	.loc 1 142 0 discriminator 3
	ldi r27,-1	 ; ,
	sub r12,r27	 ;  i,
	sbc r13,r27	 ;  i,
	sbc r14,r27	 ;  i,
	sbc r15,r27	 ;  i,
.LVL18:
	rjmp .L8	 ; 
.LVL19:
.L2:
.LBE14:
.LBE13:
.LBE11:
	.loc 1 148 0
	ldd r30,Y+50	 ;  self_5(D)->msgBuffer.reset, self_5(D)->msgBuffer.reset
	ldd r31,Y+51	 ;  self_5(D)->msgBuffer.reset, self_5(D)->msgBuffer.reset
	movw r24,r16	 ; , D.3440
/* epilogue start */
	.loc 1 150 0
	pop r29	 ; 
	pop r28	 ; 
.LVL20:
	pop r17	 ; 
	pop r16	 ; 
.LVL21:
	pop r15	 ; 
	pop r14	 ; 
	pop r13	 ; 
	pop r12	 ; 
	pop r11	 ; 
.LVL22:
	pop r10	 ; 
	pop r7	 ; 
	pop r6	 ; 
	pop r5	 ; 
	pop r4	 ; 
	.loc 1 148 0
	ijmp
.LVL23:
.L1:
/* epilogue start */
	.loc 1 150 0
	pop r29	 ; 
	pop r28	 ; 
.LVL24:
	pop r17	 ; 
	pop r16	 ; 
	pop r15	 ; 
	pop r14	 ; 
	pop r13	 ; 
	pop r12	 ; 
	pop r11	 ; 
.LVL25:
	pop r10	 ; 
	pop r7	 ; 
	pop r6	 ; 
	pop r5	 ; 
	pop r4	 ; 
	ret
	.cfi_endproc
.LFE11:
	.size	processAndRespondBuffer, .-processAndRespondBuffer
	.section	.text.writeToAddrPort,"ax",@progbits
.global	writeToAddrPort
	.type	writeToAddrPort, @function
writeToAddrPort:
.LFB6:
	.loc 1 32 0
	.cfi_startproc
.LVL26:
/* prologue: function */
/* frame size = 0 */
/* stack size = 0 */
.L__stack_usage = 0
	.loc 1 33 0
	movw r26,r24	 ; , self
	adiw r26,14	 ;  self_2(D)->ADDR_PORT.P1
	ld r30,X+	 ;  D.3448
	ld r31,X	 ;  D.3448
	sbiw r26,14+1	 ;  self_2(D)->ADDR_PORT.P1
	mov r18,r22	 ;  D.3449,
	swap r18	 ;  D.3449
	lsl r18	 ;  D.3449
	andi r18,lo8(-32)	 ;  D.3449,
	std Z+4,r18	 ;  _3->OUT, D.3449
	.loc 1 34 0
	adiw r26,16	 ;  self_2(D)->ADDR_PORT.P2
	ld r30,X+	 ;  D.3448
	ld r31,X	 ;  D.3448
	sbiw r26,16+1	 ;  self_2(D)->ADDR_PORT.P2
	ldi r24,3	 ; ,
	1:
	lsr r23	 ;  D.3450
	ror r22	 ;  D.3450
	dec r24	 ; 
	brne 1b
.LVL27:
	std Z+4,r22	 ;  _8->OUT, D.3450
	ret
	.cfi_endproc
.LFE6:
	.size	writeToAddrPort, .-writeToAddrPort
	.section	.text.refreshRASonly,"ax",@progbits
.global	refreshRASonly
	.type	refreshRASonly, @function
refreshRASonly:
.LFB8:
	.loc 1 48 0
	.cfi_startproc
.LVL28:
	push r16	 ; 
.LCFI14:
	.cfi_def_cfa_offset 3
	.cfi_offset 16, -2
	push r17	 ; 
.LCFI15:
	.cfi_def_cfa_offset 4
	.cfi_offset 17, -3
	push r28	 ; 
.LCFI16:
	.cfi_def_cfa_offset 5
	.cfi_offset 28, -4
	push r29	 ; 
.LCFI17:
	.cfi_def_cfa_offset 6
	.cfi_offset 29, -5
/* prologue: function */
/* frame size = 0 */
/* stack size = 4 */
.L__stack_usage = 4
	movw r28,r24	 ;  self, self
	.loc 1 49 0
	ldd r30,Y+2	 ;  D.3458, self_4(D)->RAS.PORT
	ldd r31,Y+3	 ;  D.3458, self_4(D)->RAS.PORT
	ldd r25,Z+4	 ;  D.3459, _5->OUT
	ldd r24,Y+4	 ;  self_4(D)->RAS.PIN, self_4(D)->RAS.PIN
.LVL29:
	or r24,r25	 ;  D.3459, D.3459
	std Z+4,r24	 ;  _5->OUT, D.3459
	.loc 1 50 0
	ldd r30,Y+5	 ;  D.3458, self_4(D)->CAS.PORT
	ldd r31,Y+6	 ;  D.3458, self_4(D)->CAS.PORT
	ldd r25,Z+4	 ;  D.3459, _10->OUT
	ldd r24,Y+7	 ;  self_4(D)->CAS.PIN, self_4(D)->CAS.PIN
	com r24	 ;  D.3460
	and r24,r25	 ;  D.3459, D.3459
	std Z+4,r24	 ;  _10->OUT, D.3459
.LVL30:
.LBB17:
	.loc 1 52 0
	ldi r16,0	 ;  row
	ldi r17,0	 ;  row
.LVL31:
.L13:
	.loc 1 53 0 discriminator 3
	ldd r30,Y+5	 ;  D.3458, self_4(D)->CAS.PORT
	ldd r31,Y+6	 ;  D.3458, self_4(D)->CAS.PORT
	ldd r25,Z+4	 ;  D.3459, _19->OUT
	ldd r24,Y+7	 ;  self_4(D)->CAS.PIN, self_4(D)->CAS.PIN
	or r24,r25	 ;  D.3459, D.3459
	std Z+4,r24	 ;  _19->OUT, D.3459
	.loc 1 54 0 discriminator 3
	movw r22,r16	 ; , row
	movw r24,r28	 ; , self
	rcall writeToAddrPort	 ; 
.LVL32:
	.loc 1 55 0 discriminator 3
	ldd r30,Y+2	 ;  D.3458, self_4(D)->RAS.PORT
	ldd r31,Y+3	 ;  D.3458, self_4(D)->RAS.PORT
	ldd r25,Z+4	 ;  D.3459, _25->OUT
	ldd r24,Y+4	 ;  self_4(D)->RAS.PIN, self_4(D)->RAS.PIN
	com r24	 ;  D.3460
	and r24,r25	 ;  D.3459, D.3459
	std Z+4,r24	 ;  _25->OUT, D.3459
.LVL33:
.LBB18:
.LBB19:
	.file 2 "c:\\program files (x86)\\atmel\\studio\\7.0\\toolchain\\avr8\\avr8-gnu-toolchain\\avr\\include\\util\\delay.h"
	.loc 2 276 0 discriminator 3
	ldi r24,lo8(13)	 ; ,
1:	dec r24	 ; 
	brne 1b
	nop
.LVL34:
.LBE19:
.LBE18:
	.loc 1 59 0 discriminator 3
	ldd r30,Y+2	 ;  D.3458, self_4(D)->RAS.PORT
	ldd r31,Y+3	 ;  D.3458, self_4(D)->RAS.PORT
	ldd r25,Z+4	 ;  D.3459, _35->OUT
	ldd r24,Y+4	 ;  self_4(D)->RAS.PIN, self_4(D)->RAS.PIN
	or r24,r25	 ;  D.3459, D.3459
	std Z+4,r24	 ;  _35->OUT, D.3459
.LVL35:
.LBB20:
.LBB21:
	.loc 2 276 0 discriminator 3
	ldi r24,lo8(6)	 ; ,
1:	dec r24	 ; 
	brne 1b
	rjmp .
.LVL36:
.LBE21:
.LBE20:
	.loc 1 62 0 discriminator 3
	ldd r30,Y+5	 ;  D.3458, self_4(D)->CAS.PORT
	ldd r31,Y+6	 ;  D.3458, self_4(D)->CAS.PORT
	ldd r25,Z+4	 ;  D.3459, _40->OUT
	ldd r24,Y+7	 ;  self_4(D)->CAS.PIN, self_4(D)->CAS.PIN
	com r24	 ;  D.3460
	and r24,r25	 ;  D.3459, D.3459
	std Z+4,r24	 ;  _40->OUT, D.3459
	.loc 1 63 0 discriminator 3
	ldd r30,Y+5	 ;  D.3458, self_4(D)->CAS.PORT
	ldd r31,Y+6	 ;  D.3458, self_4(D)->CAS.PORT
	ldd r25,Z+4	 ;  D.3459, _49->OUT
	ldd r24,Y+7	 ;  self_4(D)->CAS.PIN, self_4(D)->CAS.PIN
	or r24,r25	 ;  D.3459, D.3459
	std Z+4,r24	 ;  _49->OUT, D.3459
.LVL37:
.LBB22:
.LBB23:
	.loc 2 276 0 discriminator 3
	ldi r24,lo8(6)	 ; ,
1:	dec r24	 ; 
	brne 1b
	rjmp .
.LVL38:
.LBE23:
.LBE22:
	.loc 1 66 0 discriminator 3
	ldd r30,Y+5	 ;  D.3458, self_4(D)->CAS.PORT
	ldd r31,Y+6	 ;  D.3458, self_4(D)->CAS.PORT
	ldd r25,Z+4	 ;  D.3459, _54->OUT
	ldd r24,Y+7	 ;  self_4(D)->CAS.PIN, self_4(D)->CAS.PIN
	com r24	 ;  D.3460
	and r24,r25	 ;  D.3459, D.3459
	std Z+4,r24	 ;  _54->OUT, D.3459
	.loc 1 52 0 discriminator 3
	subi r16,-1	 ;  row,
	sbci r17,-1	 ;  row,
.LVL39:
	cp r16,__zero_reg__	 ;  row
	ldi r24,2	 ; ,
	cpc r17,r24	 ;  row,
	brne .L13	 ; ,
/* epilogue start */
.LBE17:
	.loc 1 68 0
	pop r29	 ; 
	pop r28	 ; 
.LVL40:
	pop r17	 ; 
	pop r16	 ; 
.LVL41:
	ret
	.cfi_endproc
.LFE8:
	.size	refreshRASonly, .-refreshRASonly
	.section	.text.readByte,"ax",@progbits
.global	readByte
	.type	readByte, @function
readByte:
.LFB9:
	.loc 1 70 0
	.cfi_startproc
.LVL42:
	push r12	 ; 
.LCFI18:
	.cfi_def_cfa_offset 3
	.cfi_offset 12, -2
	push r13	 ; 
.LCFI19:
	.cfi_def_cfa_offset 4
	.cfi_offset 13, -3
	push r14	 ; 
.LCFI20:
	.cfi_def_cfa_offset 5
	.cfi_offset 14, -4
	push r15	 ; 
.LCFI21:
	.cfi_def_cfa_offset 6
	.cfi_offset 15, -5
	push r28	 ; 
.LCFI22:
	.cfi_def_cfa_offset 7
	.cfi_offset 28, -6
	push r29	 ; 
.LCFI23:
	.cfi_def_cfa_offset 8
	.cfi_offset 29, -7
/* prologue: function */
/* frame size = 0 */
/* stack size = 6 */
.L__stack_usage = 6
	movw r28,r24	 ;  self, self
	movw r12,r20	 ;  addr, addr
	movw r14,r22	 ;  addr, addr
	.loc 1 71 0
/* #APP */
 ;  71 "../DRAMHandler/DRAMHandler.c" 1
	cli
 ;  0 "" 2
.LVL43:
	.loc 1 74 0
/* #NOAPP */
	ld r30,Y	 ;  D.3465, self_9(D)->DATA_PORT
	ldd r31,Y+1	 ;  D.3465, self_9(D)->DATA_PORT
	st Z,__zero_reg__	 ;  _10->DIR,
	.loc 1 76 0
	ldd r30,Y+5	 ;  D.3465, self_9(D)->CAS.PORT
	ldd r31,Y+6	 ;  D.3465, self_9(D)->CAS.PORT
	ldd r25,Z+4	 ;  D.3466, _12->OUT
	ldd r24,Y+7	 ;  self_9(D)->CAS.PIN, self_9(D)->CAS.PIN
.LVL44:
	or r24,r25	 ;  D.3466, D.3466
	std Z+4,r24	 ;  _12->OUT, D.3466
	.loc 1 77 0
	movw r26,r22	 ;  D.3463, addr
	movw r24,r20	 ;  D.3463, addr
	andi r26,3	 ;  D.3463,
	clr r27	 ;  D.3463
	movw r22,r24	 ;  D.3463, D.3463
	movw r24,r26	 ;  D.3463, D.3463
	ldi r18,9	 ; ,
	1:
	lsr r25	 ;  D.3463
	ror r24	 ;  D.3463
	ror r23	 ;  D.3463
	ror r22	 ;  D.3463
	dec r18	 ; 
	brne 1b
	movw r24,r28	 ; , self
	rcall writeToAddrPort	 ; 
.LVL45:
	.loc 1 79 0
	ldd r30,Y+2	 ;  D.3465, self_9(D)->RAS.PORT
	ldd r31,Y+3	 ;  D.3465, self_9(D)->RAS.PORT
	ldd r25,Z+4	 ;  D.3466, _18->OUT
	ldd r24,Y+4	 ;  self_9(D)->RAS.PIN, self_9(D)->RAS.PIN
	com r24	 ;  D.3467
	and r24,r25	 ;  D.3466, D.3466
	std Z+4,r24	 ;  _18->OUT, D.3466
	.loc 1 81 0
	ldd r30,Y+11	 ;  D.3465, self_9(D)->W.PORT
	ldd r31,Y+12	 ;  D.3465, self_9(D)->W.PORT
	ldd r25,Z+4	 ;  D.3466, _27->OUT
	ldd r24,Y+13	 ;  self_9(D)->W.PIN, self_9(D)->W.PIN
	or r24,r25	 ;  D.3466, D.3466
	std Z+4,r24	 ;  _27->OUT, D.3466
	.loc 1 82 0
	movw r22,r12	 ;  colAddr,
	andi r23,1	 ;  colAddr,
	movw r24,r28	 ; , self
	rcall writeToAddrPort	 ; 
.LVL46:
	.loc 1 83 0
	ldd r30,Y+5	 ;  D.3465, self_9(D)->CAS.PORT
	ldd r31,Y+6	 ;  D.3465, self_9(D)->CAS.PORT
	ldd r25,Z+4	 ;  D.3466, _33->OUT
	ldd r24,Y+7	 ;  self_9(D)->CAS.PIN, self_9(D)->CAS.PIN
	com r24	 ;  D.3467
	and r24,r25	 ;  D.3466, D.3466
	std Z+4,r24	 ;  _33->OUT, D.3466
	.loc 1 85 0
	ldd r30,Y+8	 ;  D.3465, self_9(D)->OE.PORT
	ldd r31,Y+9	 ;  D.3465, self_9(D)->OE.PORT
	ldd r25,Z+4	 ;  D.3466, _42->OUT
	ldd r24,Y+10	 ;  self_9(D)->OE.PIN, self_9(D)->OE.PIN
	com r24	 ;  D.3467
	and r24,r25	 ;  D.3466, D.3466
	std Z+4,r24	 ;  _42->OUT, D.3466
	.loc 1 87 0
	ld r30,Y	 ;  D.3465, self_9(D)->DATA_PORT
	ldd r31,Y+1	 ;  D.3465, self_9(D)->DATA_PORT
	ldd r24,Z+8	 ;  validDataOut, _51->IN
.LVL47:
	.loc 1 89 0
	ldd r30,Y+5	 ;  D.3465, self_9(D)->CAS.PORT
	ldd r31,Y+6	 ;  D.3465, self_9(D)->CAS.PORT
	ldd r18,Z+4	 ;  D.3466, _53->OUT
	ldd r25,Y+7	 ;  self_9(D)->CAS.PIN, self_9(D)->CAS.PIN
	or r25,r18	 ;  D.3466, D.3466
	std Z+4,r25	 ;  _53->OUT, D.3466
	.loc 1 90 0
	ldd r30,Y+2	 ;  D.3465, self_9(D)->RAS.PORT
	ldd r31,Y+3	 ;  D.3465, self_9(D)->RAS.PORT
	ldd r18,Z+4	 ;  D.3466, _58->OUT
	ldd r25,Y+4	 ;  self_9(D)->RAS.PIN, self_9(D)->RAS.PIN
	or r25,r18	 ;  D.3466, D.3466
	std Z+4,r25	 ;  _58->OUT, D.3466
	.loc 1 92 0
	ld r30,Y	 ;  D.3465, self_9(D)->DATA_PORT
	ldd r31,Y+1	 ;  D.3465, self_9(D)->DATA_PORT
	ldi r25,lo8(-1)	 ;  tmp107,
	st Z,r25	 ;  _63->DIR, tmp107
	.loc 1 93 0
/* #APP */
 ;  93 "../DRAMHandler/DRAMHandler.c" 1
	sei
 ;  0 "" 2
/* epilogue start */
	.loc 1 96 0
/* #NOAPP */
	pop r29	 ; 
	pop r28	 ; 
.LVL48:
	pop r15	 ; 
	pop r14	 ; 
	pop r13	 ; 
	pop r12	 ; 
.LVL49:
	ret
	.cfi_endproc
.LFE9:
	.size	readByte, .-readByte
	.section	.text.writeByte,"ax",@progbits
.global	writeByte
	.type	writeByte, @function
writeByte:
.LFB10:
	.loc 1 98 0
	.cfi_startproc
.LVL50:
	push r12	 ; 
.LCFI24:
	.cfi_def_cfa_offset 3
	.cfi_offset 12, -2
	push r13	 ; 
.LCFI25:
	.cfi_def_cfa_offset 4
	.cfi_offset 13, -3
	push r14	 ; 
.LCFI26:
	.cfi_def_cfa_offset 5
	.cfi_offset 14, -4
	push r15	 ; 
.LCFI27:
	.cfi_def_cfa_offset 6
	.cfi_offset 15, -5
	push r17	 ; 
.LCFI28:
	.cfi_def_cfa_offset 7
	.cfi_offset 17, -6
	push r28	 ; 
.LCFI29:
	.cfi_def_cfa_offset 8
	.cfi_offset 28, -7
	push r29	 ; 
.LCFI30:
	.cfi_def_cfa_offset 9
	.cfi_offset 29, -8
/* prologue: function */
/* frame size = 0 */
/* stack size = 7 */
.L__stack_usage = 7
	movw r28,r24	 ;  self, self
	movw r12,r20	 ;  addr, addr
	movw r14,r22	 ;  addr, addr
	mov r17,r18	 ;  data, data
	.loc 1 99 0
/* #APP */
 ;  99 "../DRAMHandler/DRAMHandler.c" 1
	cli
 ;  0 "" 2
.LVL51:
	.loc 1 102 0
/* #NOAPP */
	ld r30,Y	 ;  D.3472, self_9(D)->DATA_PORT
	ldd r31,Y+1	 ;  D.3472, self_9(D)->DATA_PORT
	ldi r24,lo8(-1)	 ;  tmp119,
.LVL52:
	st Z,r24	 ;  _10->DIR, tmp119
	.loc 1 103 0
	ldd r30,Y+2	 ;  D.3472, self_9(D)->RAS.PORT
	ldd r31,Y+3	 ;  D.3472, self_9(D)->RAS.PORT
	ldd r25,Z+4	 ;  D.3473, _12->OUT
	ldd r24,Y+4	 ;  self_9(D)->RAS.PIN, self_9(D)->RAS.PIN
	or r24,r25	 ;  D.3473, D.3473
	std Z+4,r24	 ;  _12->OUT, D.3473
	.loc 1 105 0
	ldd r30,Y+5	 ;  D.3472, self_9(D)->CAS.PORT
	ldd r31,Y+6	 ;  D.3472, self_9(D)->CAS.PORT
	ldd r25,Z+4	 ;  D.3473, _17->OUT
	ldd r24,Y+7	 ;  self_9(D)->CAS.PIN, self_9(D)->CAS.PIN
	or r24,r25	 ;  D.3473, D.3473
	std Z+4,r24	 ;  _17->OUT, D.3473
	.loc 1 106 0
	movw r26,r22	 ;  D.3470, addr
	movw r24,r20	 ;  D.3470, addr
	andi r26,3	 ;  D.3470,
	clr r27	 ;  D.3470
	movw r22,r24	 ;  D.3470, D.3470
	movw r24,r26	 ;  D.3470, D.3470
	ldi r18,9	 ; ,
	1:
	lsr r25	 ;  D.3470
	ror r24	 ;  D.3470
	ror r23	 ;  D.3470
	ror r22	 ;  D.3470
	dec r18	 ; 
	brne 1b
.LVL53:
	movw r24,r28	 ; , self
	rcall writeToAddrPort	 ; 
.LVL54:
	.loc 1 107 0
	ldd r30,Y+2	 ;  D.3472, self_9(D)->RAS.PORT
	ldd r31,Y+3	 ;  D.3472, self_9(D)->RAS.PORT
	ldd r25,Z+4	 ;  D.3473, _23->OUT
	ldd r24,Y+4	 ;  self_9(D)->RAS.PIN, self_9(D)->RAS.PIN
	com r24	 ;  D.3474
	and r24,r25	 ;  D.3473, D.3473
	std Z+4,r24	 ;  _23->OUT, D.3473
	.loc 1 109 0
	ldd r30,Y+8	 ;  D.3472, self_9(D)->OE.PORT
	ldd r31,Y+9	 ;  D.3472, self_9(D)->OE.PORT
	ldd r25,Z+4	 ;  D.3473, _32->OUT
	ldd r24,Y+10	 ;  self_9(D)->OE.PIN, self_9(D)->OE.PIN
	or r24,r25	 ;  D.3473, D.3473
	std Z+4,r24	 ;  _32->OUT, D.3473
	.loc 1 110 0
	movw r22,r12	 ;  colAddr,
	andi r23,1	 ;  colAddr,
	movw r24,r28	 ; , self
	rcall writeToAddrPort	 ; 
.LVL55:
	.loc 1 111 0
	ldd r30,Y+5	 ;  D.3472, self_9(D)->CAS.PORT
	ldd r31,Y+6	 ;  D.3472, self_9(D)->CAS.PORT
	ldd r25,Z+4	 ;  D.3473, _38->OUT
	ldd r24,Y+7	 ;  self_9(D)->CAS.PIN, self_9(D)->CAS.PIN
	com r24	 ;  D.3474
	and r24,r25	 ;  D.3473, D.3473
	std Z+4,r24	 ;  _38->OUT, D.3473
	.loc 1 112 0
	ld r30,Y	 ;  D.3472, self_9(D)->DATA_PORT
	ldd r31,Y+1	 ;  D.3472, self_9(D)->DATA_PORT
	std Z+4,r17	 ;  _47->OUT, data
	.loc 1 113 0
	ldd r30,Y+11	 ;  D.3472, self_9(D)->W.PORT
	ldd r31,Y+12	 ;  D.3472, self_9(D)->W.PORT
	ldd r25,Z+4	 ;  D.3473, _50->OUT
	ldd r24,Y+13	 ;  self_9(D)->W.PIN, self_9(D)->W.PIN
	com r24	 ;  D.3474
	and r24,r25	 ;  D.3473, D.3473
	std Z+4,r24	 ;  _50->OUT, D.3473
	.loc 1 115 0
	ldd r30,Y+8	 ;  D.3472, self_9(D)->OE.PORT
	ldd r31,Y+9	 ;  D.3472, self_9(D)->OE.PORT
	ldd r25,Z+4	 ;  D.3473, _59->OUT
	ldd r24,Y+10	 ;  self_9(D)->OE.PIN, self_9(D)->OE.PIN
	com r24	 ;  D.3474
	and r24,r25	 ;  D.3473, D.3473
	std Z+4,r24	 ;  _59->OUT, D.3473
	.loc 1 117 0
	ldd r30,Y+5	 ;  D.3472, self_9(D)->CAS.PORT
	ldd r31,Y+6	 ;  D.3472, self_9(D)->CAS.PORT
	ldd r25,Z+4	 ;  D.3473, _68->OUT
	ldd r24,Y+7	 ;  self_9(D)->CAS.PIN, self_9(D)->CAS.PIN
	or r24,r25	 ;  D.3473, D.3473
	std Z+4,r24	 ;  _68->OUT, D.3473
	.loc 1 118 0
	ldd r30,Y+2	 ;  D.3472, self_9(D)->RAS.PORT
	ldd r31,Y+3	 ;  D.3472, self_9(D)->RAS.PORT
	ldd r25,Z+4	 ;  D.3473, _73->OUT
	ldd r24,Y+4	 ;  self_9(D)->RAS.PIN, self_9(D)->RAS.PIN
	or r24,r25	 ;  D.3473, D.3473
	std Z+4,r24	 ;  _73->OUT, D.3473
	.loc 1 120 0
	ldd r30,Y+5	 ;  D.3472, self_9(D)->CAS.PORT
	ldd r31,Y+6	 ;  D.3472, self_9(D)->CAS.PORT
	ldd r25,Z+4	 ;  D.3473, _78->OUT
	ldd r24,Y+7	 ;  self_9(D)->CAS.PIN, self_9(D)->CAS.PIN
	com r24	 ;  D.3474
	and r24,r25	 ;  D.3473, D.3473
	std Z+4,r24	 ;  _78->OUT, D.3473
	.loc 1 121 0
	ldd r30,Y+11	 ;  D.3472, self_9(D)->W.PORT
	ldd r31,Y+12	 ;  D.3472, self_9(D)->W.PORT
	ldd r25,Z+4	 ;  D.3473, _87->OUT
	ldd r24,Y+13	 ;  self_9(D)->W.PIN, self_9(D)->W.PIN
	or r24,r25	 ;  D.3473, D.3473
	std Z+4,r24	 ;  _87->OUT, D.3473
	.loc 1 123 0
	ld r30,Y	 ;  D.3472, self_9(D)->DATA_PORT
	ldd r31,Y+1	 ;  D.3472, self_9(D)->DATA_PORT
	std Z+4,__zero_reg__	 ;  _92->OUT,
.LVL56:
.LBB24:
.LBB25:
	.loc 1 33 0
	ldd r30,Y+14	 ;  D.3472, self_9(D)->ADDR_PORT.P1
	ldd r31,Y+15	 ;  D.3472, self_9(D)->ADDR_PORT.P1
	std Z+4,__zero_reg__	 ;  _96->OUT,
	.loc 1 34 0
	ldd r30,Y+16	 ;  D.3472, self_9(D)->ADDR_PORT.P2
	ldd r31,Y+17	 ;  D.3472, self_9(D)->ADDR_PORT.P2
	std Z+4,__zero_reg__	 ;  _97->OUT,
.LVL57:
.LBE25:
.LBE24:
	.loc 1 125 0
/* #APP */
 ;  125 "../DRAMHandler/DRAMHandler.c" 1
	sei
 ;  0 "" 2
/* epilogue start */
	.loc 1 126 0
/* #NOAPP */
	pop r29	 ; 
	pop r28	 ; 
.LVL58:
	pop r17	 ; 
.LVL59:
	pop r15	 ; 
	pop r14	 ; 
	pop r13	 ; 
	pop r12	 ; 
.LVL60:
	ret
	.cfi_endproc
.LFE10:
	.size	writeByte, .-writeByte
	.section	.text.resetPins,"ax",@progbits
.global	resetPins
	.type	resetPins, @function
resetPins:
.LFB7:
	.loc 1 37 0
	.cfi_startproc
.LVL61:
/* prologue: function */
/* frame size = 0 */
/* stack size = 0 */
.L__stack_usage = 0
	movw r30,r24	 ;  self, self
	.loc 1 38 0
	ldd r26,Z+2	 ;  D.3477, self_2(D)->RAS.PORT
	ldd r27,Z+3	 ;  D.3477, self_2(D)->RAS.PORT
	ld r25,X	 ;  D.3478, _3->DIR
	ldd r24,Z+4	 ;  self_2(D)->RAS.PIN, self_2(D)->RAS.PIN
.LVL62:
	or r24,r25	 ;  D.3478, D.3478
	st X,r24	 ;  _3->DIR, D.3478
	.loc 1 39 0
	ldd r26,Z+2	 ;  D.3477, self_2(D)->RAS.PORT
	ldd r27,Z+3	 ;  D.3477, self_2(D)->RAS.PORT
	adiw r26,4	 ;  _8->OUT
	ld r25,X	 ;  D.3478
	sbiw r26,4	 ;  _8->OUT
	ldd r24,Z+4	 ;  self_2(D)->RAS.PIN, self_2(D)->RAS.PIN
	or r24,r25	 ;  D.3478, D.3478
	adiw r26,4	 ;  _8->OUT
	st X,r24	 ;  D.3478
	.loc 1 40 0
	ldd r26,Z+5	 ;  D.3477, self_2(D)->CAS.PORT
	ldd r27,Z+6	 ;  D.3477, self_2(D)->CAS.PORT
	ld r25,X	 ;  D.3478, _13->DIR
	ldd r24,Z+7	 ;  self_2(D)->CAS.PIN, self_2(D)->CAS.PIN
	or r24,r25	 ;  D.3478, D.3478
	st X,r24	 ;  _13->DIR, D.3478
	.loc 1 41 0
	ldd r26,Z+5	 ;  D.3477, self_2(D)->CAS.PORT
	ldd r27,Z+6	 ;  D.3477, self_2(D)->CAS.PORT
	adiw r26,4	 ;  _18->OUT
	ld r25,X	 ;  D.3478
	sbiw r26,4	 ;  _18->OUT
	ldd r24,Z+7	 ;  self_2(D)->CAS.PIN, self_2(D)->CAS.PIN
	com r24	 ;  D.3479
	and r24,r25	 ;  D.3478, D.3478
	adiw r26,4	 ;  _18->OUT
	st X,r24	 ;  D.3478
	.loc 1 42 0
	ldd r26,Z+8	 ;  D.3477, self_2(D)->OE.PORT
	ldd r27,Z+9	 ;  D.3477, self_2(D)->OE.PORT
	ld r25,X	 ;  D.3478, _27->DIR
	ldd r24,Z+10	 ;  self_2(D)->OE.PIN, self_2(D)->OE.PIN
	or r24,r25	 ;  D.3478, D.3478
	st X,r24	 ;  _27->DIR, D.3478
	.loc 1 43 0
	ldd r26,Z+8	 ;  D.3477, self_2(D)->OE.PORT
	ldd r27,Z+9	 ;  D.3477, self_2(D)->OE.PORT
	adiw r26,4	 ;  _32->OUT
	ld r25,X	 ;  D.3478
	sbiw r26,4	 ;  _32->OUT
	ldd r24,Z+10	 ;  self_2(D)->OE.PIN, self_2(D)->OE.PIN
	com r24	 ;  D.3479
	and r24,r25	 ;  D.3478, D.3478
	adiw r26,4	 ;  _32->OUT
	st X,r24	 ;  D.3478
	.loc 1 44 0
	ldd r26,Z+11	 ;  D.3477, self_2(D)->W.PORT
	ldd r27,Z+12	 ;  D.3477, self_2(D)->W.PORT
	ld r25,X	 ;  D.3478, _41->DIR
	ldd r24,Z+13	 ;  self_2(D)->W.PIN, self_2(D)->W.PIN
	or r24,r25	 ;  D.3478, D.3478
	st X,r24	 ;  _41->DIR, D.3478
	.loc 1 45 0
	ldd r26,Z+11	 ;  D.3477, self_2(D)->W.PORT
	ldd r27,Z+12	 ;  D.3477, self_2(D)->W.PORT
	adiw r26,4	 ;  _46->OUT
	ld r25,X	 ;  D.3478
	sbiw r26,4	 ;  _46->OUT
	ldd r24,Z+13	 ;  self_2(D)->W.PIN, self_2(D)->W.PIN
	or r24,r25	 ;  D.3478, D.3478
	adiw r26,4	 ;  _46->OUT
	st X,r24	 ;  D.3478
	ret
	.cfi_endproc
.LFE7:
	.size	resetPins, .-resetPins
	.section	.text.initDRAMHandler,"ax",@progbits
.global	initDRAMHandler
	.type	initDRAMHandler, @function
initDRAMHandler:
.LFB12:
	.loc 1 152 0
	.cfi_startproc
.LVL63:
	push r28	 ; 
.LCFI31:
	.cfi_def_cfa_offset 3
	.cfi_offset 28, -2
	push r29	 ; 
.LCFI32:
	.cfi_def_cfa_offset 4
	.cfi_offset 29, -3
/* prologue: function */
/* frame size = 0 */
/* stack size = 2 */
.L__stack_usage = 2
	movw r28,r24	 ;  self, self
	.loc 1 153 0
	adiw r24,24	 ; ,
.LVL64:
	rcall initBuffer	 ; 
.LVL65:
	.loc 1 154 0
	movw r24,r28	 ; , self
	adiw r24,52	 ; ,
	rcall initQueue	 ; 
.LVL66:
	.loc 1 156 0
	movw r30,r28	 ;  tmp74, self
	subi r30,-66	 ;  tmp74,
	sbci r31,-1	 ; ,
	ldi r24,lo8(gs(readByte))	 ;  tmp75,
	ldi r25,hi8(gs(readByte))	 ; ,
	st Z,r24	 ;  self_1(D)->readByte, tmp75
	std Z+1,r25	 ;  self_1(D)->readByte, tmp75
	.loc 1 157 0
	adiw r30,2	 ;  tmp76,
	ldi r24,lo8(gs(writeByte))	 ;  tmp77,
	ldi r25,hi8(gs(writeByte))	 ; ,
	st Z,r24	 ;  self_1(D)->writeByte, tmp77
	std Z+1,r25	 ;  self_1(D)->writeByte, tmp77
	.loc 1 158 0
	adiw r30,2	 ;  tmp78,
	ldi r24,lo8(gs(refreshRASonly))	 ;  tmp79,
	ldi r25,hi8(gs(refreshRASonly))	 ; ,
	st Z,r24	 ;  self_1(D)->refreshRASonly, tmp79
	std Z+1,r25	 ;  self_1(D)->refreshRASonly, tmp79
	.loc 1 159 0
	adiw r30,2	 ;  tmp80,
	ldi r24,lo8(gs(processAndRespondBuffer))	 ;  tmp81,
	ldi r25,hi8(gs(processAndRespondBuffer))	 ; ,
	st Z,r24	 ;  self_1(D)->processAndRespondBuffer, tmp81
	std Z+1,r25	 ;  self_1(D)->processAndRespondBuffer, tmp81
	.loc 1 161 0
	sbiw r30,8	 ;  tmp82,
	st Z,__zero_reg__	 ;  self_1(D)->hasPendingRefresh,
	.loc 1 162 0
	adiw r30,1	 ;  tmp83,
	st Z,__zero_reg__	 ;  self_1(D)->hasPendingBufferUpdate,
	.loc 1 164 0
	ldi r24,lo8(96)	 ;  tmp84,
	ldi r25,lo8(4)	 ; ,
	st Y,r24	 ;  self_1(D)->DATA_PORT, tmp84
	std Y+1,r25	 ;  self_1(D)->DATA_PORT, tmp84
	.loc 1 166 0
	ldi r24,lo8(-128)	 ;  tmp85,
	ldi r25,lo8(4)	 ; ,
	std Y+2,r24	 ;  self_1(D)->RAS.PORT, tmp85
	std Y+3,r25	 ;  self_1(D)->RAS.PORT, tmp85
	.loc 1 167 0
	ldi r20,lo8(1)	 ;  tmp86,
	std Y+4,r20	 ;  self_1(D)->RAS.PIN, tmp86
	.loc 1 169 0
	std Y+5,r24	 ;  self_1(D)->CAS.PORT, tmp85
	std Y+6,r25	 ;  self_1(D)->CAS.PORT, tmp85
	.loc 1 170 0
	ldi r19,lo8(2)	 ;  tmp88,
	std Y+7,r19	 ;  self_1(D)->CAS.PIN, tmp88
	.loc 1 172 0
	std Y+8,r24	 ;  self_1(D)->OE.PORT, tmp85
	std Y+9,r25	 ;  self_1(D)->OE.PORT, tmp85
	.loc 1 173 0
	ldi r18,lo8(4)	 ;  tmp90,
	std Y+10,r18	 ;  self_1(D)->OE.PIN, tmp90
	.loc 1 175 0
	std Y+11,r24	 ;  self_1(D)->W.PORT, tmp85
	std Y+12,r25	 ;  self_1(D)->W.PORT, tmp85
	.loc 1 176 0
	ldi r24,lo8(8)	 ;  tmp92,
	std Y+13,r24	 ;  self_1(D)->W.PIN, tmp92
	.loc 1 178 0
	ldi r30,0	 ;  tmp93
	ldi r31,lo8(4)	 ; ,
	std Y+14,r30	 ;  self_1(D)->ADDR_PORT.P1, tmp93
	std Y+15,r31	 ;  self_1(D)->ADDR_PORT.P1, tmp93
	.loc 1 179 0
	ldi r22,lo8(32)	 ;  tmp94,
	ldi r23,lo8(4)	 ; ,
	std Y+16,r22	 ;  self_1(D)->ADDR_PORT.P2, tmp94
	std Y+17,r23	 ;  self_1(D)->ADDR_PORT.P2, tmp94
	.loc 1 181 0
	ldi r25,lo8(-1)	 ;  tmp96,
	st Z,r25	 ;  MEM[(struct PORT_t *)1024B].DIR, tmp96
	.loc 1 182 0
	ldd r30,Y+16	 ;  D.3484, self_1(D)->ADDR_PORT.P2
	ldd r31,Y+17	 ;  D.3484, self_1(D)->ADDR_PORT.P2
	st Z,r25	 ;  _25->DIR, tmp96
	.loc 1 184 0
	ldi r30,lo8(64)	 ;  tmp98,
	ldi r31,lo8(4)	 ; ,
	std Y+18,r30	 ;  self_1(D)->SPI.PORT, tmp98
	std Y+19,r31	 ;  self_1(D)->SPI.PORT, tmp98
	.loc 1 185 0
	std Y+21,r20	 ;  self_1(D)->SPI.MOSI, tmp86
	.loc 1 186 0
	std Y+22,r19	 ;  self_1(D)->SPI.MISO, tmp88
	.loc 1 187 0
	std Y+23,r18	 ;  self_1(D)->SPI.SCK, tmp90
	.loc 1 188 0
	std Y+20,r24	 ;  self_1(D)->SPI.SS, tmp92
	.loc 1 190 0
	ld r24,Z	 ;  D.3485, MEM[(struct PORT_t *)1088B].DIR
	ori r24,lo8(2)	 ;  D.3485,
	st Z,r24	 ;  MEM[(struct PORT_t *)1088B].DIR, D.3485
	.loc 1 191 0
	ldd r30,Y+18	 ;  D.3484, self_1(D)->SPI.PORT
	ldd r31,Y+19	 ;  D.3484, self_1(D)->SPI.PORT
	ld r25,Z	 ;  D.3485, _35->DIR
	ldd r24,Y+21	 ;  self_1(D)->SPI.MOSI, self_1(D)->SPI.MOSI
	com r24	 ;  D.3486
	and r24,r25	 ;  D.3485, D.3485
	st Z,r24	 ;  _35->DIR, D.3485
	.loc 1 192 0
	ldd r30,Y+18	 ;  D.3484, self_1(D)->SPI.PORT
	ldd r31,Y+19	 ;  D.3484, self_1(D)->SPI.PORT
	ld r25,Z	 ;  D.3485, _44->DIR
	ldd r24,Y+20	 ;  self_1(D)->SPI.SS, self_1(D)->SPI.SS
	com r24	 ;  D.3486
	and r24,r25	 ;  D.3485, D.3485
	st Z,r24	 ;  _44->DIR, D.3485
	.loc 1 193 0
	ldd r30,Y+18	 ;  D.3484, self_1(D)->SPI.PORT
	ldd r31,Y+19	 ;  D.3484, self_1(D)->SPI.PORT
	ld r25,Z	 ;  D.3485, _53->DIR
	ldd r24,Y+23	 ;  self_1(D)->SPI.SCK, self_1(D)->SPI.SCK
	com r24	 ;  D.3486
	and r24,r25	 ;  D.3485, D.3485
	st Z,r24	 ;  _53->DIR, D.3485
	.loc 1 195 0
	movw r24,r28	 ; , self
/* epilogue start */
	.loc 1 196 0
	pop r29	 ; 
	pop r28	 ; 
.LVL67:
	.loc 1 195 0
	rjmp resetPins	 ; 
.LVL68:
	.cfi_endproc
.LFE12:
	.size	initDRAMHandler, .-initDRAMHandler
	.text
.Letext0:
	.file 3 "c:\\program files (x86)\\atmel\\studio\\7.0\\toolchain\\avr8\\avr8-gnu-toolchain\\avr\\include\\stdint.h"
	.file 4 "C:\\Program Files (x86)\\Atmel\\Studio\\7.0\\Packs\\Atmel\\ATmega_DFP\\1.4.346\\include/avr/iom809.h"
	.file 5 "../DRAMHandler/../Buffer/Buffer.h"
	.file 6 "../DRAMHandler/../Queue/Queue.h"
	.file 7 "../DRAMHandler/DRAMHandler.h"