	.file	"main.c"
__SP_H__ = 0x3e
__SP_L__ = 0x3d
__SREG__ = 0x3f
__CCP__ = 0x34
__tmp_reg__ = 0
__zero_reg__ = 1
 ;  GNU C99 (AVR_8_bit_GNU_Toolchain_3.6.2_1778) version 5.4.0 (avr)
 ; 	compiled by GNU C version 4.7.4, GMP version 5.0.2, MPFR version 3.0.0, MPC version 0.9
 ;  GGC heuristics: --param ggc-min-expand=100 --param ggc-min-heapsize=131072
 ;  options passed:  -fpreprocessed main.i -mn-flash=1 -mno-skip-bug
 ;  -mmcu=avrxmega3 -mshort-calls -auxbase-strip main.o -g2 -Os -Wall
 ;  -std=gnu99 -funsigned-char -funsigned-bitfields -ffunction-sections
 ;  -fdata-sections -fpack-struct -fshort-enums -fverbose-asm
 ;  options enabled:  -Wmisspelled-isr -faggressive-loop-optimizations
 ;  -falign-functions -falign-jumps -falign-labels -falign-loops
 ;  -fauto-inc-dec -fbranch-count-reg -fchkp-check-incomplete-type
 ;  -fchkp-check-read -fchkp-check-write -fchkp-instrument-calls
 ;  -fchkp-narrow-bounds -fchkp-optimize -fchkp-store-bounds
 ;  -fchkp-use-static-bounds -fchkp-use-static-const-bounds
 ;  -fchkp-use-wrappers -fcombine-stack-adjustments -fcommon -fcompare-elim
 ;  -fcprop-registers -fcrossjumping -fcse-follow-jumps -fdata-sections
 ;  -fdefer-pop -fdevirtualize -fdevirtualize-speculatively
 ;  -fdwarf2-cfi-asm -fearly-inlining -feliminate-unused-debug-types
 ;  -fexpensive-optimizations -fforward-propagate -ffunction-cse
 ;  -ffunction-sections -fgcse -fgcse-lm -fgnu-runtime -fgnu-unique
 ;  -fguess-branch-probability -fhoist-adjacent-loads -fident
 ;  -fif-conversion -fif-conversion2 -findirect-inlining -finline
 ;  -finline-atomics -finline-functions -finline-functions-called-once
 ;  -finline-small-functions -fipa-cp -fipa-cp-alignment -fipa-icf
 ;  -fipa-icf-functions -fipa-icf-variables -fipa-profile -fipa-pure-const
 ;  -fipa-ra -fipa-reference -fipa-sra -fira-hoist-pressure
 ;  -fira-share-save-slots -fira-share-spill-slots
 ;  -fisolate-erroneous-paths-dereference -fivopts -fkeep-static-consts
 ;  -fleading-underscore -flifetime-dse -flra-remat -flto-odr-type-merging
 ;  -fmath-errno -fmerge-constants -fmerge-debug-strings
 ;  -fmove-loop-invariants -fomit-frame-pointer -foptimize-sibling-calls
 ;  -fpack-struct -fpartial-inlining -fpeephole -fpeephole2
 ;  -fprefetch-loop-arrays -freg-struct-return -freorder-blocks
 ;  -freorder-functions -frerun-cse-after-loop
 ;  -fsched-critical-path-heuristic -fsched-dep-count-heuristic
 ;  -fsched-group-heuristic -fsched-interblock -fsched-last-insn-heuristic
 ;  -fsched-rank-heuristic -fsched-spec -fsched-spec-insn-heuristic
 ;  -fsched-stalled-insns-dep -fschedule-fusion -fsemantic-interposition
 ;  -fshow-column -fshrink-wrap -fsigned-zeros -fsplit-ivs-in-unroller
 ;  -fsplit-wide-types -fssa-phiopt -fstdarg-opt -fstrict-aliasing
 ;  -fstrict-overflow -fstrict-volatile-bitfields -fsync-libcalls
 ;  -fthread-jumps -ftoplevel-reorder -ftrapping-math -ftree-bit-ccp
 ;  -ftree-builtin-call-dce -ftree-ccp -ftree-ch -ftree-coalesce-vars
 ;  -ftree-copy-prop -ftree-copyrename -ftree-dce -ftree-dominator-opts
 ;  -ftree-dse -ftree-forwprop -ftree-fre -ftree-loop-if-convert
 ;  -ftree-loop-im -ftree-loop-ivcanon -ftree-loop-optimize
 ;  -ftree-parallelize-loops= -ftree-phiprop -ftree-pre -ftree-pta
 ;  -ftree-reassoc -ftree-scev-cprop -ftree-sink -ftree-slsr -ftree-sra
 ;  -ftree-switch-conversion -ftree-tail-merge -ftree-ter -ftree-vrp
 ;  -funit-at-a-time -fvar-tracking -fvar-tracking-assignments
 ;  -fverbose-asm -fzero-initialized-in-bss -mshort-calls

	.text
.Ltext0:
	.cfi_sections	.debug_frame
	.section	.text.__vector_9,"ax",@progbits
.global	__vector_9
	.type	__vector_9, @function
__vector_9:
.LFB6:
	.file 1 ".././main.c"
	.loc 1 18 0
	.cfi_startproc
	push r1	 ; 
.LCFI0:
	.cfi_def_cfa_offset 3
	.cfi_offset 1, -2
	push r0	 ; 
.LCFI1:
	.cfi_def_cfa_offset 4
	.cfi_offset 0, -3
	in r0,__SREG__	 ; ,
	push r0	 ; 
	clr __zero_reg__	 ; 
	push r12	 ; 
.LCFI2:
	.cfi_def_cfa_offset 5
	.cfi_offset 12, -4
	push r13	 ; 
.LCFI3:
	.cfi_def_cfa_offset 6
	.cfi_offset 13, -5
	push r14	 ; 
.LCFI4:
	.cfi_def_cfa_offset 7
	.cfi_offset 14, -6
	push r15	 ; 
.LCFI5:
	.cfi_def_cfa_offset 8
	.cfi_offset 15, -7
	push r16	 ; 
.LCFI6:
	.cfi_def_cfa_offset 9
	.cfi_offset 16, -8
	push r17	 ; 
.LCFI7:
	.cfi_def_cfa_offset 10
	.cfi_offset 17, -9
	push r18	 ; 
.LCFI8:
	.cfi_def_cfa_offset 11
	.cfi_offset 18, -10
	push r19	 ; 
.LCFI9:
	.cfi_def_cfa_offset 12
	.cfi_offset 19, -11
	push r20	 ; 
.LCFI10:
	.cfi_def_cfa_offset 13
	.cfi_offset 20, -12
	push r21	 ; 
.LCFI11:
	.cfi_def_cfa_offset 14
	.cfi_offset 21, -13
	push r22	 ; 
.LCFI12:
	.cfi_def_cfa_offset 15
	.cfi_offset 22, -14
	push r23	 ; 
.LCFI13:
	.cfi_def_cfa_offset 16
	.cfi_offset 23, -15
	push r24	 ; 
.LCFI14:
	.cfi_def_cfa_offset 17
	.cfi_offset 24, -16
	push r25	 ; 
.LCFI15:
	.cfi_def_cfa_offset 18
	.cfi_offset 25, -17
	push r26	 ; 
.LCFI16:
	.cfi_def_cfa_offset 19
	.cfi_offset 26, -18
	push r27	 ; 
.LCFI17:
	.cfi_def_cfa_offset 20
	.cfi_offset 27, -19
	push r30	 ; 
.LCFI18:
	.cfi_def_cfa_offset 21
	.cfi_offset 30, -20
	push r31	 ; 
.LCFI19:
	.cfi_def_cfa_offset 22
	.cfi_offset 31, -21
	push r28	 ; 
.LCFI20:
	.cfi_def_cfa_offset 23
	.cfi_offset 28, -22
	push r29	 ; 
.LCFI21:
	.cfi_def_cfa_offset 24
	.cfi_offset 29, -23
	in r28,__SP_L__	 ; 
	in r29,__SP_H__	 ; 
.LCFI22:
	.cfi_def_cfa_register 28
	subi r28,-1	 ; ,
	sbc r29,__zero_reg__	 ; 
.LCFI23:
	.cfi_def_cfa_offset 279
	out __SP_L__,r28	 ; ,
	out __SP_H__,r29	 ; ,
/* prologue: Signal */
/* frame size = 255 */
/* stack size = 278 */
.L__stack_usage = 278
.LVL0:
	.loc 1 18 0
	mov r12,__zero_reg__	 ;  ivtmp.24
	mov r13,__zero_reg__	 ;  ivtmp.24
	movw r14,r12	 ;  ivtmp.24
.LBB2:
	.loc 1 20 0
	ldi r17,lo8(5)	 ;  tmp74,
.LVL1:
.L2:
	.loc 1 20 0 is_stmt 0 discriminator 3
	mov r24,r12	 ; , ivtmp.24
	mov r22,r17	 ; , tmp74
	rcall __udivmodqi4
	lds r30,dramHandler+44	 ;  dramHandler.writeByte, dramHandler.writeByte
	lds r31,dramHandler+44+1	 ;  dramHandler.writeByte, dramHandler.writeByte
	mov r18,r25	 ; , D.3183
	movw r22,r14	 ; , ivtmp.24
	movw r20,r12	 ; , ivtmp.24
	ldi r24,lo8(dramHandler)	 ; ,
	ldi r25,hi8(dramHandler)	 ; ,
	icall
.LVL2:
	ldi r24,-1	 ; ,
	sub r12,r24	 ;  ivtmp.24,
	sbc r13,r24	 ;  ivtmp.24,
	sbc r14,r24	 ;  ivtmp.24,
	sbc r15,r24	 ;  ivtmp.24,
.LVL3:
	.loc 1 19 0 is_stmt 1 discriminator 3
	ldi r30,-1	 ; ,
	cp r12,r30	 ;  ivtmp.24,
	cpc r13,__zero_reg__	 ;  ivtmp.24
	cpc r14,__zero_reg__	 ;  ivtmp.24
	cpc r15,__zero_reg__	 ;  ivtmp.24
	brne .L2	 ; ,
	mov r12,__zero_reg__	 ;  ivtmp.16
	mov r13,__zero_reg__	 ;  ivtmp.16
	movw r14,r12	 ;  ivtmp.16
.LVL4:
.L3:
.LBE2:
.LBB3:
	.loc 1 25 0 discriminator 3
	ldi r16,lo8(1)	 ;  tmp63,
	ldi r17,0	 ; 
	add r16,r28	 ;  tmp63,
	adc r17,r29	 ; ,
	add r16,r12	 ;  tmp63, ivtmp.16
	adc r17,r13	 ; , ivtmp.16
	movw r30,r16	 ; , tmp63
	st Z,__zero_reg__	 ;  vals,
	.loc 1 26 0 discriminator 3
	lds r30,dramHandler+42	 ;  dramHandler.readByte, dramHandler.readByte
	lds r31,dramHandler+42+1	 ;  dramHandler.readByte, dramHandler.readByte
	movw r22,r14	 ; , ivtmp.16
	movw r20,r12	 ; , ivtmp.16
	ldi r24,lo8(dramHandler)	 ; ,
	ldi r25,hi8(dramHandler)	 ; ,
	icall
.LVL5:
	movw r30,r16	 ; , tmp63
	st Z,r24	 ;  vals, D.3183
.LVL6:
	ldi r31,-1	 ; ,
	sub r12,r31	 ;  ivtmp.16,
	sbc r13,r31	 ;  ivtmp.16,
	sbc r14,r31	 ;  ivtmp.16,
	sbc r15,r31	 ;  ivtmp.16,
.LVL7:
	.loc 1 24 0 discriminator 3
	ldi r24,-1	 ; ,
	cp r12,r24	 ;  ivtmp.16,
	cpc r13,__zero_reg__	 ;  ivtmp.16
	cpc r14,__zero_reg__	 ;  ivtmp.16
	cpc r15,__zero_reg__	 ;  ivtmp.16
	brne .L3	 ; ,
.LBE3:
	.loc 1 29 0
	ldi r24,lo8(1)	 ;  tmp68,
	sts dramHandler+40,r24	 ;  dramHandler.hasPendingRefresh, tmp68
	.loc 1 31 0
	lds r24,2571	 ;  D.3183, MEM[(union TCA_t *)2560B].SINGLE.INTFLAGS
	ori r24,lo8(16)	 ;  D.3183,
	sts 2571,r24	 ;  MEM[(union TCA_t *)2560B].SINGLE.INTFLAGS, D.3183
/* epilogue start */
	.loc 1 32 0
	subi r28,1	 ; ,
	sbci r29,-1	 ; ,
	out __SP_L__,r28	 ; ,
	out __SP_H__,r29	 ; ,
	pop r29	 ; 
	pop r28	 ; 
	pop r31	 ; 
	pop r30	 ; 
	pop r27	 ; 
	pop r26	 ; 
	pop r25	 ; 
	pop r24	 ; 
	pop r23	 ; 
	pop r22	 ; 
	pop r21	 ; 
	pop r20	 ; 
	pop r19	 ; 
	pop r18	 ; 
	pop r17	 ; 
	pop r16	 ; 
	pop r15	 ; 
	pop r14	 ; 
	pop r13	 ; 
	pop r12	 ; 
.LVL8:
	pop r0	 ; 
	out __SREG__,r0	 ; ,
	pop r0	 ; 
	pop r1	 ; 
	reti
	.cfi_endproc
.LFE6:
	.size	__vector_9, .-__vector_9
	.section	.text.__vector_16,"ax",@progbits
.global	__vector_16
	.type	__vector_16, @function
__vector_16:
.LFB7:
	.loc 1 34 0
	.cfi_startproc
	push r1	 ; 
.LCFI24:
	.cfi_def_cfa_offset 3
	.cfi_offset 1, -2
	push r0	 ; 
.LCFI25:
	.cfi_def_cfa_offset 4
	.cfi_offset 0, -3
	in r0,__SREG__	 ; ,
	push r0	 ; 
	clr __zero_reg__	 ; 
	push r18	 ; 
.LCFI26:
	.cfi_def_cfa_offset 5
	.cfi_offset 18, -4
	push r19	 ; 
.LCFI27:
	.cfi_def_cfa_offset 6
	.cfi_offset 19, -5
	push r20	 ; 
.LCFI28:
	.cfi_def_cfa_offset 7
	.cfi_offset 20, -6
	push r21	 ; 
.LCFI29:
	.cfi_def_cfa_offset 8
	.cfi_offset 21, -7
	push r22	 ; 
.LCFI30:
	.cfi_def_cfa_offset 9
	.cfi_offset 22, -8
	push r23	 ; 
.LCFI31:
	.cfi_def_cfa_offset 10
	.cfi_offset 23, -9
	push r24	 ; 
.LCFI32:
	.cfi_def_cfa_offset 11
	.cfi_offset 24, -10
	push r25	 ; 
.LCFI33:
	.cfi_def_cfa_offset 12
	.cfi_offset 25, -11
	push r26	 ; 
.LCFI34:
	.cfi_def_cfa_offset 13
	.cfi_offset 26, -12
	push r27	 ; 
.LCFI35:
	.cfi_def_cfa_offset 14
	.cfi_offset 27, -13
	push r28	 ; 
.LCFI36:
	.cfi_def_cfa_offset 15
	.cfi_offset 28, -14
	push r29	 ; 
.LCFI37:
	.cfi_def_cfa_offset 16
	.cfi_offset 29, -15
	push r30	 ; 
.LCFI38:
	.cfi_def_cfa_offset 17
	.cfi_offset 30, -16
	push r31	 ; 
.LCFI39:
	.cfi_def_cfa_offset 18
	.cfi_offset 31, -17
/* prologue: Signal */
/* frame size = 0 */
/* stack size = 17 */
.L__stack_usage = 17
	.loc 1 35 0
	lds r22,2244	 ;  data, MEM[(struct SPI_t *)2240B].DATA
.LVL9:
	.loc 1 36 0
	ldi r28,lo8(dramHandler)	 ;  tmp45,
	ldi r29,hi8(dramHandler)	 ; ,
	ldd r30,Y+34	 ;  dramHandler.buffer.push, dramHandler.buffer.push
	ldd r31,Y+35	 ;  dramHandler.buffer.push, dramHandler.buffer.push
	ldi r24,lo8(dramHandler+18)	 ; ,
	ldi r25,hi8(dramHandler+18)	 ; ,
	icall
.LVL10:
	.loc 1 37 0
	ldi r24,lo8(1)	 ;  tmp48,
	std Y+41,r24	 ;  dramHandler.hasPendingBufferUpdate, tmp48
/* epilogue start */
	.loc 1 38 0
	pop r31	 ; 
	pop r30	 ; 
	pop r29	 ; 
	pop r28	 ; 
	pop r27	 ; 
	pop r26	 ; 
	pop r25	 ; 
	pop r24	 ; 
	pop r23	 ; 
	pop r22	 ; 
	pop r21	 ; 
	pop r20	 ; 
	pop r19	 ; 
	pop r18	 ; 
	pop r0	 ; 
	out __SREG__,r0	 ; ,
	pop r0	 ; 
	pop r1	 ; 
	reti
	.cfi_endproc
.LFE7:
	.size	__vector_16, .-__vector_16
	.section	.text.initTimer0,"ax",@progbits
.global	initTimer0
	.type	initTimer0, @function
initTimer0:
.LFB8:
	.loc 1 40 0
	.cfi_startproc
/* prologue: function */
/* frame size = 0 */
/* stack size = 0 */
.L__stack_usage = 0
	.loc 1 42 0
	ldi r30,0	 ;  tmp44
	ldi r31,lo8(10)	 ; ,
	ldi r24,lo8(8)	 ;  tmp45,
	st Z,r24	 ;  MEM[(union TCA_t *)2560B].SINGLE.CTRLA, tmp45
	.loc 1 44 0
	ldi r24,lo8(1)	 ;  tmp47,
	std Z+1,r24	 ;  MEM[(union TCA_t *)2560B].SINGLE.CTRLB, tmp47
	.loc 1 46 0
	ldi r24,lo8(62)	 ;  tmp49,
	ldi r25,lo8(73)	 ; ,
	std Z+56,r24	 ;  MEM[(union TCA_t *)2560B].SINGLE.D.2499.CMP0BUF, tmp49
	std Z+57,r25	 ;  MEM[(union TCA_t *)2560B].SINGLE.D.2499.CMP0BUF, tmp49
	.loc 1 48 0
	ldi r24,lo8(16)	 ;  tmp51,
	std Z+10,r24	 ;  MEM[(union TCA_t *)2560B].SINGLE.INTCTRL, tmp51
	.loc 1 50 0
	ld r24,Z	 ;  D.3192, MEM[(union TCA_t *)2560B].SINGLE.CTRLA
	ori r24,lo8(1)	 ;  D.3192,
	st Z,r24	 ;  MEM[(union TCA_t *)2560B].SINGLE.CTRLA, D.3192
	ret
	.cfi_endproc
.LFE8:
	.size	initTimer0, .-initTimer0
	.section	.text.initSPI,"ax",@progbits
.global	initSPI
	.type	initSPI, @function
initSPI:
.LFB9:
	.loc 1 53 0
	.cfi_startproc
/* prologue: function */
/* frame size = 0 */
/* stack size = 0 */
.L__stack_usage = 0
	.loc 1 55 0
	ldi r30,lo8(64)	 ;  tmp52,
	ldi r31,lo8(4)	 ; ,
	ld r24,Z	 ;  D.3195, MEM[(struct PORT_t *)1088B].DIR
	andi r24,lo8(-9)	 ;  D.3195,
	st Z,r24	 ;  MEM[(struct PORT_t *)1088B].DIR, D.3195
	.loc 1 56 0
	ldd r24,Z+4	 ;  D.3195, MEM[(struct PORT_t *)1088B].OUT
	andi r24,lo8(-9)	 ;  D.3195,
	std Z+4,r24	 ;  MEM[(struct PORT_t *)1088B].OUT, D.3195
	.loc 1 58 0
	ldi r30,lo8(-64)	 ;  tmp56,
	ldi r31,lo8(8)	 ; ,
	ldd r24,Z+1	 ;  D.3195, MEM[(struct SPI_t *)2240B].CTRLB
	ori r24,lo8(-128)	 ;  D.3195,
	std Z+1,r24	 ;  MEM[(struct SPI_t *)2240B].CTRLB, D.3195
	.loc 1 60 0
	ldd r24,Z+2	 ;  D.3195, MEM[(struct SPI_t *)2240B].INTCTRL
	ori r24,lo8(-128)	 ;  D.3195,
	std Z+2,r24	 ;  MEM[(struct SPI_t *)2240B].INTCTRL, D.3195
	.loc 1 62 0
	ld r24,Z	 ;  D.3195, MEM[(struct SPI_t *)2240B].CTRLA
	ori r24,lo8(1)	 ;  D.3195,
	st Z,r24	 ;  MEM[(struct SPI_t *)2240B].CTRLA, D.3195
	ret
	.cfi_endproc
.LFE9:
	.size	initSPI, .-initSPI
	.section	.text.initCPU,"ax",@progbits
.global	initCPU
	.type	initCPU, @function
initCPU:
.LFB10:
	.loc 1 65 0
	.cfi_startproc
/* prologue: function */
/* frame size = 0 */
/* stack size = 0 */
.L__stack_usage = 0
	.loc 1 67 0
	ldi r24,lo8(-40)	 ;  tmp45,
	out __CCP__,r24	 ;  MEM[(volatile uint8_t *)52B], tmp45
	.loc 1 69 0
	ldi r30,lo8(96)	 ;  tmp46,
	ldi r31,0	 ; 
	st Z,__zero_reg__	 ;  MEM[(struct CLKCTRL_t *)96B].MCLKCTRLA,
	.loc 1 71 0
	out __CCP__,r24	 ;  MEM[(volatile uint8_t *)52B], tmp45
	.loc 1 73 0
	ldd r24,Z+1	 ;  D.3198, MEM[(struct CLKCTRL_t *)96B].MCLKCTRLB
	andi r24,lo8(-2)	 ;  D.3198,
	std Z+1,r24	 ;  MEM[(struct CLKCTRL_t *)96B].MCLKCTRLB, D.3198
	.loc 1 76 0
/* #APP */
 ;  76 ".././main.c" 1
	sei
 ;  0 "" 2
/* #NOAPP */
	ret
	.cfi_endproc
.LFE10:
	.size	initCPU, .-initCPU
	.section	.text.startup.main,"ax",@progbits
.global	main
	.type	main, @function
main:
.LFB11:
	.loc 1 79 0
	.cfi_startproc
/* prologue: function */
/* frame size = 0 */
/* stack size = 0 */
.L__stack_usage = 0
	.loc 1 80 0
	ldi r24,lo8(dramHandler)	 ; ,
	ldi r25,hi8(dramHandler)	 ; ,
	rcall initDRAMHandler	 ; 
.LVL11:
	.loc 1 82 0
	rcall initCPU	 ; 
.LVL12:
	.loc 1 84 0
	rcall initTimer0	 ; 
.LVL13:
.L12:
	.loc 1 87 0
	lds r24,dramHandler+40	 ;  D.3201, dramHandler.hasPendingRefresh
	tst r24	 ;  D.3201
	breq .L12	 ; ,
	.loc 1 88 0
	lds r30,dramHandler+46	 ;  dramHandler.refreshRASonly, dramHandler.refreshRASonly
	lds r31,dramHandler+46+1	 ;  dramHandler.refreshRASonly, dramHandler.refreshRASonly
	ldi r24,lo8(dramHandler)	 ; ,
	ldi r25,hi8(dramHandler)	 ; ,
	icall
.LVL14:
	.loc 1 89 0
	sts dramHandler+40,__zero_reg__	 ;  dramHandler.hasPendingRefresh,
	rjmp .L12	 ; 
	.cfi_endproc
.LFE11:
	.size	main, .-main
	.comm	dramHandler,50,1
	.text
.Letext0:
	.file 2 "c:\\program files (x86)\\atmel\\studio\\7.0\\toolchain\\avr8\\avr8-gnu-toolchain\\avr\\include\\stdint.h"
	.file 3 "C:\\Program Files (x86)\\Atmel\\Studio\\7.0\\Packs\\Atmel\\ATmega_DFP\\1.4.346\\include/avr/iom809.h"
	.file 4 ".././DRAMHandler/../Buffer/Buffer.h"
	.file 5 ".././DRAMHandler/DRAMHandler.h"