	.file	"main.c"
__SP_H__ = 0x3e
__SP_L__ = 0x3d
__SREG__ = 0x3f
__CCP__ = 0x34
__tmp_reg__ = 0
__zero_reg__ = 1
 ;  GNU C99 (AVR_8_bit_GNU_Toolchain_3.6.2_1778) version 5.4.0 (avr)
 ; 	compiled by GNU C version 4.7.4, GMP version 5.0.2, MPFR version 3.0.0, MPC version 0.9
 ;  GGC heuristics: --param ggc-min-expand=100 --param ggc-min-heapsize=131072
 ;  options passed:  -fpreprocessed main.i -mn-flash=1 -mno-skip-bug
 ;  -mmcu=avrxmega3 -mshort-calls -auxbase-strip main.o -g2 -Os -Wall
 ;  -std=gnu99 -funsigned-char -funsigned-bitfields -ffunction-sections
 ;  -fdata-sections -fpack-struct -fshort-enums -fverbose-asm
 ;  options enabled:  -Wmisspelled-isr -faggressive-loop-optimizations
 ;  -falign-functions -falign-jumps -falign-labels -falign-loops
 ;  -fauto-inc-dec -fbranch-count-reg -fchkp-check-incomplete-type
 ;  -fchkp-check-read -fchkp-check-write -fchkp-instrument-calls
 ;  -fchkp-narrow-bounds -fchkp-optimize -fchkp-store-bounds
 ;  -fchkp-use-static-bounds -fchkp-use-static-const-bounds
 ;  -fchkp-use-wrappers -fcombine-stack-adjustments -fcommon -fcompare-elim
 ;  -fcprop-registers -fcrossjumping -fcse-follow-jumps -fdata-sections
 ;  -fdefer-pop -fdevirtualize -fdevirtualize-speculatively
 ;  -fdwarf2-cfi-asm -fearly-inlining -feliminate-unused-debug-types
 ;  -fexpensive-optimizations -fforward-propagate -ffunction-cse
 ;  -ffunction-sections -fgcse -fgcse-lm -fgnu-runtime -fgnu-unique
 ;  -fguess-branch-probability -fhoist-adjacent-loads -fident
 ;  -fif-conversion -fif-conversion2 -findirect-inlining -finline
 ;  -finline-atomics -finline-functions -finline-functions-called-once
 ;  -finline-small-functions -fipa-cp -fipa-cp-alignment -fipa-icf
 ;  -fipa-icf-functions -fipa-icf-variables -fipa-profile -fipa-pure-const
 ;  -fipa-ra -fipa-reference -fipa-sra -fira-hoist-pressure
 ;  -fira-share-save-slots -fira-share-spill-slots
 ;  -fisolate-erroneous-paths-dereference -fivopts -fkeep-static-consts
 ;  -fleading-underscore -flifetime-dse -flra-remat -flto-odr-type-merging
 ;  -fmath-errno -fmerge-constants -fmerge-debug-strings
 ;  -fmove-loop-invariants -fomit-frame-pointer -foptimize-sibling-calls
 ;  -fpack-struct -fpartial-inlining -fpeephole -fpeephole2
 ;  -fprefetch-loop-arrays -freg-struct-return -freorder-blocks
 ;  -freorder-functions -frerun-cse-after-loop
 ;  -fsched-critical-path-heuristic -fsched-dep-count-heuristic
 ;  -fsched-group-heuristic -fsched-interblock -fsched-last-insn-heuristic
 ;  -fsched-rank-heuristic -fsched-spec -fsched-spec-insn-heuristic
 ;  -fsched-stalled-insns-dep -fschedule-fusion -fsemantic-interposition
 ;  -fshow-column -fshrink-wrap -fsigned-zeros -fsplit-ivs-in-unroller
 ;  -fsplit-wide-types -fssa-phiopt -fstdarg-opt -fstrict-aliasing
 ;  -fstrict-overflow -fstrict-volatile-bitfields -fsync-libcalls
 ;  -fthread-jumps -ftoplevel-reorder -ftrapping-math -ftree-bit-ccp
 ;  -ftree-builtin-call-dce -ftree-ccp -ftree-ch -ftree-coalesce-vars
 ;  -ftree-copy-prop -ftree-copyrename -ftree-dce -ftree-dominator-opts
 ;  -ftree-dse -ftree-forwprop -ftree-fre -ftree-loop-if-convert
 ;  -ftree-loop-im -ftree-loop-ivcanon -ftree-loop-optimize
 ;  -ftree-parallelize-loops= -ftree-phiprop -ftree-pre -ftree-pta
 ;  -ftree-reassoc -ftree-scev-cprop -ftree-sink -ftree-slsr -ftree-sra
 ;  -ftree-switch-conversion -ftree-tail-merge -ftree-ter -ftree-vrp
 ;  -funit-at-a-time -fvar-tracking -fvar-tracking-assignments
 ;  -fverbose-asm -fzero-initialized-in-bss -mshort-calls

	.text
.Ltext0:
	.cfi_sections	.debug_frame
	.section	.text.__vector_9,"ax",@progbits
.global	__vector_9
	.type	__vector_9, @function
__vector_9:
.LFB0:
	.file 1 ".././main.c"
	.loc 1 19 0
	.cfi_startproc
	push r1	 ; 
.LCFI0:
	.cfi_def_cfa_offset 3
	.cfi_offset 1, -2
	push r0	 ; 
.LCFI1:
	.cfi_def_cfa_offset 4
	.cfi_offset 0, -3
	in r0,__SREG__	 ; ,
	push r0	 ; 
	clr __zero_reg__	 ; 
	push r24	 ; 
.LCFI2:
	.cfi_def_cfa_offset 5
	.cfi_offset 24, -4
	push r25	 ; 
.LCFI3:
	.cfi_def_cfa_offset 6
	.cfi_offset 25, -5
	push r30	 ; 
.LCFI4:
	.cfi_def_cfa_offset 7
	.cfi_offset 30, -6
	push r31	 ; 
.LCFI5:
	.cfi_def_cfa_offset 8
	.cfi_offset 31, -7
/* prologue: Signal */
/* frame size = 0 */
/* stack size = 7 */
.L__stack_usage = 7
	.loc 1 21 0
	ldi r30,lo8(-96)	 ;  tmp46,
	ldi r31,lo8(4)	 ; ,
	ldd r25,Z+4	 ;  D.2927, MEM[(struct PORT_t *)1184B].OUT
	ldi r24,lo8(1)	 ;  tmp47,
	eor r24,r25	 ;  D.2927, D.2927
	std Z+4,r24	 ;  MEM[(struct PORT_t *)1184B].OUT, D.2927
	.loc 1 22 0
	ldi r30,0	 ;  tmp49
	ldi r31,lo8(10)	 ; ,
	std Z+32,__zero_reg__	 ;  MEM[(union TCA_t *)2560B].SINGLE.D.2455.CNT,
	std Z+33,__zero_reg__	 ;  MEM[(union TCA_t *)2560B].SINGLE.D.2455.CNT,
	.loc 1 23 0
	ldd r24,Z+11	 ;  D.2927, MEM[(union TCA_t *)2560B].SINGLE.INTFLAGS
	ori r24,lo8(16)	 ;  D.2927,
	std Z+11,r24	 ;  MEM[(union TCA_t *)2560B].SINGLE.INTFLAGS, D.2927
/* epilogue start */
	.loc 1 24 0
	pop r31	 ; 
	pop r30	 ; 
	pop r25	 ; 
	pop r24	 ; 
	pop r0	 ; 
	out __SREG__,r0	 ; ,
	pop r0	 ; 
	pop r1	 ; 
	reti
	.cfi_endproc
.LFE0:
	.size	__vector_9, .-__vector_9
	.section	.text.initTimer0,"ax",@progbits
.global	initTimer0
	.type	initTimer0, @function
initTimer0:
.LFB1:
	.loc 1 26 0
	.cfi_startproc
/* prologue: function */
/* frame size = 0 */
/* stack size = 0 */
.L__stack_usage = 0
	.loc 1 28 0
	ldi r30,0	 ;  tmp44
	ldi r31,lo8(10)	 ; ,
	ldi r24,lo8(-1)	 ;  tmp45,
	ldi r25,lo8(-1)	 ; ,
	std Z+38,r24	 ;  MEM[(union TCA_t *)2560B].SINGLE.D.2463.PER, tmp45
	std Z+39,r25	 ;  MEM[(union TCA_t *)2560B].SINGLE.D.2463.PER, tmp45
	.loc 1 30 0
	ldi r24,lo8(8)	 ;  tmp47,
	st Z,r24	 ;  MEM[(union TCA_t *)2560B].SINGLE.CTRLA, tmp47
	.loc 1 32 0
	ldi r24,lo8(62)	 ;  tmp49,
	ldi r25,lo8(73)	 ; ,
	std Z+40,r24	 ;  MEM[(union TCA_t *)2560B].SINGLE.D.2470.CMP0, tmp49
	std Z+41,r25	 ;  MEM[(union TCA_t *)2560B].SINGLE.D.2470.CMP0, tmp49
	.loc 1 34 0
	ldi r24,lo8(16)	 ;  tmp51,
	std Z+10,r24	 ;  MEM[(union TCA_t *)2560B].SINGLE.INTCTRL, tmp51
	.loc 1 36 0
	ld r24,Z	 ;  D.2930, MEM[(union TCA_t *)2560B].SINGLE.CTRLA
	ori r24,lo8(1)	 ;  D.2930,
	st Z,r24	 ;  MEM[(union TCA_t *)2560B].SINGLE.CTRLA, D.2930
	ret
	.cfi_endproc
.LFE1:
	.size	initTimer0, .-initTimer0
	.section	.text.initCPU,"ax",@progbits
.global	initCPU
	.type	initCPU, @function
initCPU:
.LFB2:
	.loc 1 39 0
	.cfi_startproc
/* prologue: function */
/* frame size = 0 */
/* stack size = 0 */
.L__stack_usage = 0
	.loc 1 41 0
	ldi r24,lo8(-40)	 ;  tmp47,
	out __CCP__,r24	 ;  MEM[(volatile uint8_t *)52B], tmp47
	.loc 1 43 0
	ldi r30,lo8(96)	 ;  tmp48,
	ldi r31,0	 ; 
	st Z,__zero_reg__	 ;  MEM[(struct CLKCTRL_t *)96B].MCLKCTRLA,
	.loc 1 45 0
	out __CCP__,r24	 ;  MEM[(volatile uint8_t *)52B], tmp47
	.loc 1 47 0
	ldd r24,Z+1	 ;  D.2933, MEM[(struct CLKCTRL_t *)96B].MCLKCTRLB
	andi r24,lo8(-2)	 ;  D.2933,
	std Z+1,r24	 ;  MEM[(struct CLKCTRL_t *)96B].MCLKCTRLB, D.2933
	.loc 1 50 0
/* #APP */
 ;  50 ".././main.c" 1
	sei
 ;  0 "" 2
	.loc 1 52 0
/* #NOAPP */
	ldi r30,lo8(-96)	 ;  tmp53,
	ldi r31,lo8(4)	 ; ,
	ld r24,Z	 ;  D.2933, MEM[(struct PORT_t *)1184B].DIR
	ori r24,lo8(1)	 ;  D.2933,
	st Z,r24	 ;  MEM[(struct PORT_t *)1184B].DIR, D.2933
	ret
	.cfi_endproc
.LFE2:
	.size	initCPU, .-initCPU
	.section	.text.startup.main,"ax",@progbits
.global	main
	.type	main, @function
main:
.LFB3:
	.loc 1 55 0
	.cfi_startproc
/* prologue: function */
/* frame size = 0 */
/* stack size = 0 */
.L__stack_usage = 0
	.loc 1 56 0
	rcall initCPU	 ; 
.LVL0:
	.loc 1 57 0
	rcall initTimer0	 ; 
.LVL1:
.L5:
	rjmp .L5	 ; 
	.cfi_endproc
.LFE3:
	.size	main, .-main
	.text
.Letext0:
	.file 2 "c:\\program files (x86)\\atmel\\studio\\7.0\\toolchain\\avr8\\avr8-gnu-toolchain\\avr\\include\\stdint.h"
	.file 3 "C:\\Program Files (x86)\\Atmel\\Studio\\7.0\\Packs\\Atmel\\ATmega_DFP\\1.4.346\\include/avr/iom809.h"